target datalayout = "e-m:e-p270:32:32-p271:32:32-p272:64:64-i64:64-i128:128-f80:128-n8:16:32:64-S128"
target triple = "x86_64-pc-linux-gnu"

%"class.gmx::MttkData" = type { %"class.gmx::ICheckpointHelperClient", float, float, float, double, double, double, float, [3 x [3 x float]], float, float, float, ptr, ptr, %"class.std::__cxx11::basic_string" }
%"class.gmx::ICheckpointHelperClient" = type { ptr }
%"class.std::__cxx11::basic_string" = type { %"struct.std::__cxx11::basic_string<char>::_Alloc_hider", i64, %union.anon }
%"struct.std::__cxx11::basic_string<char>::_Alloc_hider" = type { ptr }
%union.anon = type { i64, [8 x i8] }
%struct.t_commrec = type <{ i8, [3 x i8], i32, i32, i32, i32, [4 x i8], ptr, ptr, i32, [4 x i8], ptr, i32, i32, %struct.gmx_nodecomm_t, %"class.std::unique_ptr.103", %"class.std::unique_ptr.111", ptr, ptr, i32, [4 x i8] }>
%struct.gmx_nodecomm_t = type { i8, ptr, i32, ptr }
%"class.std::unique_ptr.103" = type { %"struct.std::__uniq_ptr_data.104" }
%"struct.std::__uniq_ptr_data.104" = type { %"class.std::__uniq_ptr_impl.105" }
%"class.std::__uniq_ptr_impl.105" = type { %"class.std::tuple.106" }
%"class.std::tuple.106" = type { %"struct.std::_Tuple_impl.107" }
%"struct.std::_Tuple_impl.107" = type { %"struct.std::_Head_base.110" }
%"struct.std::_Head_base.110" = type { ptr }
%"class.std::unique_ptr.111" = type { %"struct.std::__uniq_ptr_data.112" }
%"struct.std::__uniq_ptr_data.112" = type { %"class.std::__uniq_ptr_impl.113" }
%"class.std::__uniq_ptr_impl.113" = type { %"class.std::tuple.114" }
%"class.std::tuple.114" = type { %"struct.std::_Tuple_impl.115" }
%"struct.std::_Tuple_impl.115" = type { %"struct.std::_Head_base.118" }
%"struct.std::_Head_base.118" = type { ptr }
%"class.std::optional.8" = type { %"struct.std::_Optional_base.9" }
%"struct.std::_Optional_base.9" = type { %"struct.std::_Optional_payload.11" }
%"struct.std::_Optional_payload.11" = type { %"struct.std::_Optional_payload_base.base.14", [7 x i8] }
%"struct.std::_Optional_payload_base.base.14" = type <{ %"union.std::_Optional_payload_base<gmx::CheckpointData<CheckpointDataOperation::Read>>::_Storage", i8 }>
%"union.std::_Optional_payload_base<gmx::CheckpointData<CheckpointDataOperation::Read>>::_Storage" = type { %"class.gmx::CheckpointData.13" }
%"class.gmx::CheckpointData.13" = type { ptr }
%"struct.std::_Optional_payload_base.12" = type <{ %"union.std::_Optional_payload_base<gmx::CheckpointData<CheckpointDataOperation::Read>>::_Storage", i8, [7 x i8] }>

; Function Attrs: mustprogress nounwind uwtable
define linkonce_odr noundef nonnull align 8 dereferenceable(8) ptr @_ZNSt22_Optional_payload_baseIN3gmx14CheckpointDataILNS0_23CheckpointDataOperationE0EEEE6_M_getEv(ptr noundef nonnull align 8 dereferenceable(9) %0) #2 comdat align 2 {
  %2 = alloca ptr, align 8
  store ptr %0, ptr %2, align 8, !tbaa !931
  %3 = load ptr, ptr %2, align 8
  %4 = getelementptr inbounds nuw %"struct.std::_Optional_payload_base.12", ptr %3, i32 0, i32 0
  ret ptr %4
}

; Function Attrs: mustprogress nounwind uwtable
define linkonce_odr noundef nonnull align 8 dereferenceable(8) ptr @_ZNSt19_Optional_base_implIN3gmx14CheckpointDataILNS0_23CheckpointDataOperationE0EEESt14_Optional_baseIS3_Lb1ELb1EEE6_M_getEv(ptr noundef nonnull align 1 dereferenceable(1) %0) #2 comdat align 2 {
  %2 = alloca ptr, align 8
  store ptr %0, ptr %2, align 8, !tbaa !927
  %3 = load ptr, ptr %2, align 8
  br label %4

4:                                                ; preds = %1
  br label %5

5:                                                ; preds = %4
  br label %6

6:                                                ; preds = %5
  %7 = getelementptr inbounds nuw %"struct.std::_Optional_base.9", ptr %3, i32 0, i32 0
  %8 = call noundef nonnull align 8 dereferenceable(8) ptr @_ZNSt22_Optional_payload_baseIN3gmx14CheckpointDataILNS0_23CheckpointDataOperationE0EEEE6_M_getEv(ptr noundef nonnull align 8 dereferenceable(9) %7) #21
  ret ptr %8
}

; Function Attrs: mustprogress nounwind uwtable
define linkonce_odr noundef zeroext i1 @_ZNKSt19_Optional_base_implIN3gmx14CheckpointDataILNS0_23CheckpointDataOperationE0EEESt14_Optional_baseIS3_Lb1ELb1EEE13_M_is_engagedEv(ptr noundef nonnull align 1 dereferenceable(1) %0) #2 comdat align 2 {
  %2 = alloca ptr, align 8
  store ptr %0, ptr %2, align 8, !tbaa !927
  %3 = load ptr, ptr %2, align 8
  %4 = getelementptr inbounds nuw %"struct.std::_Optional_base.9", ptr %3, i32 0, i32 0
  %5 = getelementptr inbounds nuw %"struct.std::_Optional_payload_base.12", ptr %4, i32 0, i32 1
  %6 = load i8, ptr %5, align 8, !tbaa !929, !range !406, !noundef !407
  %7 = trunc i8 %6 to i1
  ret i1 %7
}

; Function Attrs: inlinehint mustprogress nounwind uwtable
define internal noundef zeroext i1 @_ZL18haveDDAtomOrderingRK9t_commrec(ptr noundef nonnull align 8 dereferenceable(132) %0) #0 {
  %2 = alloca ptr, align 8
  store ptr %0, ptr %2, align 8, !tbaa !9
  %3 = load ptr, ptr %2, align 8, !tbaa !9
  %4 = getelementptr inbounds nuw %struct.t_commrec, ptr %3, i32 0, i32 17
  %5 = load ptr, ptr %4, align 8, !tbaa !32
  %6 = icmp ne ptr %5, null
  ret i1 %6
}

; Function Attrs: mustprogress uwtable
define linkonce_odr noundef nonnull align 8 dereferenceable(8) ptr @_ZNRSt8optionalIN3gmx14CheckpointDataILNS0_23CheckpointDataOperationE0EEEE5valueEv(ptr noundef nonnull align 8 dereferenceable(16) %0) #1 comdat align 2 {
  %2 = alloca ptr, align 8
  store ptr %0, ptr %2, align 8, !tbaa !919
  %3 = load ptr, ptr %2, align 8
  %4 = call noundef zeroext i1 @_ZNKSt19_Optional_base_implIN3gmx14CheckpointDataILNS0_23CheckpointDataOperationE0EEESt14_Optional_baseIS3_Lb1ELb1EEE13_M_is_engagedEv(ptr noundef nonnull align 1 dereferenceable(1) %3) #21
  br i1 %4, label %5, label %7

5:                                                ; preds = %1
  %6 = call noundef nonnull align 8 dereferenceable(8) ptr @_ZNSt19_Optional_base_implIN3gmx14CheckpointDataILNS0_23CheckpointDataOperationE0EEESt14_Optional_baseIS3_Lb1ELb1EEE6_M_getEv(ptr noundef nonnull align 1 dereferenceable(1) %3) #21
  ret ptr %6

7:                                                ; preds = %1
  call void @_ZSt27__throw_bad_optional_accessv() #23
  unreachable
}

; Function Attrs: mustprogress uwtable
define void @_ZN3gmx8MttkData22restoreCheckpointStateESt8optionalINS_14CheckpointDataILNS_23CheckpointDataOperationE0EEEEPK9t_commrec(ptr noundef nonnull align 8 dereferenceable(152) %0, ptr %1, i8 %2, ptr noundef %3) unnamed_addr #1 align 2 {
  %5 = alloca %"class.std::optional.8", align 8
  %6 = alloca ptr, align 8
  %7 = alloca ptr, align 8
  %8 = getelementptr inbounds nuw { ptr, i8 }, ptr %5, i32 0, i32 0
  store ptr %1, ptr %8, align 8
  %9 = getelementptr inbounds nuw { ptr, i8 }, ptr %5, i32 0, i32 1
  store i8 %2, ptr %9, align 8
  store ptr %0, ptr %6, align 8, !tbaa !4
  store ptr %3, ptr %7, align 8, !tbaa !9
  %10 = load ptr, ptr %6, align 8
  %11 = load ptr, ptr %7, align 8, !tbaa !9
  %12 = getelementptr inbounds nuw %struct.t_commrec, ptr %11, i32 0, i32 13
  %13 = load i32, ptr %12, align 4, !tbaa !11
  %14 = icmp eq i32 %13, 0
  br i1 %14, label %20, label %15

15:                                               ; preds = %4
  %16 = load ptr, ptr %7, align 8, !tbaa !9
  %17 = getelementptr inbounds nuw %struct.t_commrec, ptr %16, i32 0, i32 12
  %18 = load i32, ptr %17, align 8, !tbaa !31
  %19 = icmp sgt i32 %18, 1
  br i1 %19, label %22, label %20

20:                                               ; preds = %15, %4
  %21 = call noundef nonnull align 8 dereferenceable(8) ptr @_ZNRSt8optionalIN3gmx14CheckpointDataILNS0_23CheckpointDataOperationE0EEEE5valueEv(ptr noundef nonnull align 8 dereferenceable(16) %5)
  call void @_ZN3gmx8MttkData16doCheckpointDataILNS_23CheckpointDataOperationE0EEEvPNS_14CheckpointDataIXT_EEE(ptr noundef nonnull align 8 dereferenceable(152) %10, ptr noundef %21)
  br label %22

22:                                               ; preds = %20, %15
  %23 = load ptr, ptr %7, align 8, !tbaa !9
  %24 = call noundef zeroext i1 @_ZL18haveDDAtomOrderingRK9t_commrec(ptr noundef nonnull align 8 dereferenceable(132) %23)
  br i1 %24, label %25, label %46

25:                                               ; preds = %22
  %26 = load ptr, ptr %7, align 8, !tbaa !9
  %27 = getelementptr inbounds nuw %struct.t_commrec, ptr %26, i32 0, i32 17
  %28 = load ptr, ptr %27, align 8, !tbaa !32
  %29 = getelementptr inbounds nuw %"class.gmx::MttkData", ptr %10, i32 0, i32 2
  call void @_Z8dd_bcastPK12gmx_domdec_tiPv(ptr noundef %28, i32 noundef 4, ptr noundef %29)
  %30 = load ptr, ptr %7, align 8, !tbaa !9
  %31 = getelementptr inbounds nuw %struct.t_commrec, ptr %30, i32 0, i32 17
  %32 = load ptr, ptr %31, align 8, !tbaa !32
  %33 = getelementptr inbounds nuw %"class.gmx::MttkData", ptr %10, i32 0, i32 3
  call void @_Z8dd_bcastPK12gmx_domdec_tiPv(ptr noundef %32, i32 noundef 4, ptr noundef %33)
  %34 = load ptr, ptr %7, align 8, !tbaa !9
  %35 = getelementptr inbounds nuw %struct.t_commrec, ptr %34, i32 0, i32 17
  %36 = load ptr, ptr %35, align 8, !tbaa !32
  %37 = getelementptr inbounds nuw %"class.gmx::MttkData", ptr %10, i32 0, i32 4
  call void @_Z8dd_bcastPK12gmx_domdec_tiPv(ptr noundef %36, i32 noundef 8, ptr noundef %37)
  %38 = load ptr, ptr %7, align 8, !tbaa !9
  %39 = getelementptr inbounds nuw %struct.t_commrec, ptr %38, i32 0, i32 17
  %40 = load ptr, ptr %39, align 8, !tbaa !32
  %41 = getelementptr inbounds nuw %"class.gmx::MttkData", ptr %10, i32 0, i32 5
  call void @_Z8dd_bcastPK12gmx_domdec_tiPv(ptr noundef %40, i32 noundef 8, ptr noundef %41)
  %42 = load ptr, ptr %7, align 8, !tbaa !9
  %43 = getelementptr inbounds nuw %struct.t_commrec, ptr %42, i32 0, i32 17
  %44 = load ptr, ptr %43, align 8, !tbaa !32
  %45 = getelementptr inbounds nuw %"class.gmx::MttkData", ptr %10, i32 0, i32 6
  call void @_Z8dd_bcastPK12gmx_domdec_tiPv(ptr noundef %44, i32 noundef 8, ptr noundef %45)
  br label %46

46:                                               ; preds = %25, %22
  ret void
}